; Function Attrs: mustprogress uwtable
define void @_ZN2cv3MatC2Eiii(ptr noundef nonnull align 8 dereferenceable(96) initializes((0, 64)) %0, i32 noundef %1, i32 noundef %2, i32 noundef %3) unnamed_addr #1 align 2 {
_ZN2cv3Mat6createEiii.exit:
  %4 = alloca [2 x i32], align 4
  store i32 1124007936, ptr %0, align 8, !tbaa !61
  %5 = getelementptr inbounds nuw i8, ptr %0, i64 4
  %6 = getelementptr inbounds nuw i8, ptr %0, i64 8
  %7 = getelementptr inbounds nuw i8, ptr %0, i64 64
  tail call void @llvm.memset.p0.i64(ptr noundef nonnull align 4 dereferenceable(60) %5, i8 0, i64 60, i1 false)
  store ptr %6, ptr %7, align 8, !tbaa !49
  %8 = getelementptr inbounds nuw i8, ptr %0, i64 72
  %9 = getelementptr inbounds nuw i8, ptr %0, i64 80
  store ptr %9, ptr %8, align 8, !tbaa !63
  %10 = and i32 %3, 4095
  tail call void @llvm.memset.p0.i64(ptr noundef nonnull align 8 dereferenceable(16) %9, i8 0, i64 16, i1 false)
  call void @llvm.lifetime.start.p0(i64 8, ptr nonnull %4) #24
  store i32 %1, ptr %4, align 4, !tbaa !23
  %11 = getelementptr inbounds nuw i8, ptr %4, i64 4
  store i32 %2, ptr %11, align 4, !tbaa !23
  call void @_ZN2cv3Mat6createEiPKii(ptr noundef nonnull align 8 dereferenceable(96) %0, i32 noundef 2, ptr noundef nonnull %4, i32 noundef %10)
  call void @llvm.lifetime.end.p0(i64 8, ptr nonnull %4) #24
  ret void
}